; Function Attrs: mustprogress uwtable
define dso_local noundef zeroext i1 @_ZNK5Block18contains_back_edgeEv(ptr noundef nonnull readonly align 8 dereferenceable(192) %0) local_unnamed_addr #3 align 2 {
  %2 = getelementptr inbounds i8, ptr %0, i64 16
  %3 = load ptr, ptr %2, align 8
  %.not = icmp eq ptr %3, null
  br i1 %.not, label %.loopexit, label %4

4:                                                ; preds = %1
  %5 = tail call noundef ptr @_Z21get_fact_mgr_for_funcPK8Function(ptr noundef nonnull %3)
  %6 = getelementptr inbounds i8, ptr %5, i64 336
  %7 = getelementptr inbounds i8, ptr %5, i64 344
  %8 = load ptr, ptr %7, align 8
  %9 = load ptr, ptr %6, align 8
  %.not14 = icmp eq ptr %8, %9
  br i1 %.not14, label %.loopexit, label %.lr.ph.preheader

.lr.ph.preheader:                                 ; preds = %4
  %10 = ptrtoint ptr %8 to i64
  %11 = ptrtoint ptr %9 to i64
  %12 = sub i64 %10, %11
  %13 = ashr exact i64 %12, 3
  %umax = tail call i64 @llvm.umax.i64(i64 %13, i64 1)
  br label %.lr.ph

.lr.ph:                                           ; preds = %.lr.ph.preheader, %25
  %.0811 = phi i64 [ %26, %25 ], [ 0, %.lr.ph.preheader ]
  %14 = getelementptr inbounds ptr, ptr %9, i64 %.0811
  %15 = load ptr, ptr %14, align 8
  %16 = getelementptr inbounds i8, ptr %15, i64 25
  %17 = load i8, ptr %16, align 1
  %18 = and i8 %17, 1
  %.not10 = icmp eq i8 %18, 0
  br i1 %.not10, label %25, label %19

19:                                               ; preds = %.lr.ph
  %20 = getelementptr inbounds i8, ptr %15, i64 16
  %21 = load ptr, ptr %20, align 8
  %22 = getelementptr inbounds i8, ptr %21, i64 24
  %23 = load ptr, ptr %22, align 8
  %24 = icmp eq ptr %23, %0
  br i1 %24, label %.loopexit, label %25

25:                                               ; preds = %.lr.ph, %19
  %26 = add nuw i64 %.0811, 1
  %exitcond.not = icmp eq i64 %26, %umax
  br i1 %exitcond.not, label %.loopexit, label %.lr.ph, !llvm.loop !61

.loopexit:                                        ; preds = %19, %25, %4, %1
  %.0 = phi i1 [ false, %1 ], [ false, %4 ], [ true, %19 ], [ false, %25 ]
  ret i1 %.0
}